target datalayout = "e-m:e-p270:32:32-p271:32:32-p272:64:64-i64:64-i128:128-f80:128-n8:16:32:64-S128"
target triple = "x86_64-pc-linux-gnu"

@.str.9 = private unnamed_addr constant [8 x i8] c"__index\00", align 1
@.str.10 = private unnamed_addr constant [11 x i8] c"__newindex\00", align 1
@.str.11 = private unnamed_addr constant [6 x i8] c"__len\00", align 1
@.str.18 = private unnamed_addr constant [26 x i8] c"too many elements to move\00", align 1
@.str.19 = private unnamed_addr constant [24 x i8] c"destination wrap around\00", align 1

; Function Attrs: nounwind uwtable
define internal i32 @checkfield(ptr noundef %0, ptr noundef %1, i32 noundef %2) #0 {
  %4 = alloca ptr, align 8
  %5 = alloca ptr, align 8
  %6 = alloca i32, align 4
  store ptr %0, ptr %4, align 8, !tbaa !4
  store ptr %1, ptr %5, align 8, !tbaa !11
  store i32 %2, ptr %6, align 4, !tbaa !15
  %7 = load ptr, ptr %4, align 8, !tbaa !4
  %8 = load ptr, ptr %5, align 8, !tbaa !11
  %9 = call ptr @lua_pushstring(ptr noundef %7, ptr noundef %8)
  %10 = load ptr, ptr %4, align 8, !tbaa !4
  %11 = load i32, ptr %6, align 4, !tbaa !15
  %12 = sub nsw i32 0, %11
  %13 = call i32 @lua_rawget(ptr noundef %10, i32 noundef %12)
  %14 = icmp ne i32 %13, 0
  %15 = zext i1 %14 to i32
  ret i32 %15
}

; Function Attrs: nounwind uwtable
define internal void @checktab(ptr noundef %0, i32 noundef %1, i32 noundef %2) #0 {
  %4 = alloca ptr, align 8
  %5 = alloca i32, align 4
  %6 = alloca i32, align 4
  %7 = alloca i32, align 4
  store ptr %0, ptr %4, align 8, !tbaa !4
  store i32 %1, ptr %5, align 4, !tbaa !15
  store i32 %2, ptr %6, align 4, !tbaa !15
  %8 = load ptr, ptr %4, align 8, !tbaa !4
  %9 = load i32, ptr %5, align 4, !tbaa !15
  %10 = call i32 @lua_type(ptr noundef %8, i32 noundef %9)
  %11 = icmp ne i32 %10, 5
  br i1 %11, label %12, label %56

12:                                               ; preds = %3
  call void @llvm.lifetime.start.p0(i64 4, ptr %7) #4
  store i32 1, ptr %7, align 4, !tbaa !15
  %13 = load ptr, ptr %4, align 8, !tbaa !4
  %14 = load i32, ptr %5, align 4, !tbaa !15
  %15 = call i32 @lua_getmetatable(ptr noundef %13, i32 noundef %14)
  %16 = icmp ne i32 %15, 0
  br i1 %16, label %17, label %52

17:                                               ; preds = %12
  %18 = load i32, ptr %6, align 4, !tbaa !15
  %19 = and i32 %18, 1
  %20 = icmp ne i32 %19, 0
  br i1 %20, label %21, label %27

21:                                               ; preds = %17
  %22 = load ptr, ptr %4, align 8, !tbaa !4
  %23 = load i32, ptr %7, align 4, !tbaa !15
  %24 = add nsw i32 %23, 1
  store i32 %24, ptr %7, align 4, !tbaa !15
  %25 = call i32 @checkfield(ptr noundef %22, ptr noundef @.str.9, i32 noundef %24)
  %26 = icmp ne i32 %25, 0
  br i1 %26, label %27, label %52

27:                                               ; preds = %21, %17
  %28 = load i32, ptr %6, align 4, !tbaa !15
  %29 = and i32 %28, 2
  %30 = icmp ne i32 %29, 0
  br i1 %30, label %31, label %37

31:                                               ; preds = %27
  %32 = load ptr, ptr %4, align 8, !tbaa !4
  %33 = load i32, ptr %7, align 4, !tbaa !15
  %34 = add nsw i32 %33, 1
  store i32 %34, ptr %7, align 4, !tbaa !15
  %35 = call i32 @checkfield(ptr noundef %32, ptr noundef @.str.10, i32 noundef %34)
  %36 = icmp ne i32 %35, 0
  br i1 %36, label %37, label %52

37:                                               ; preds = %31, %27
  %38 = load i32, ptr %6, align 4, !tbaa !15
  %39 = and i32 %38, 4
  %40 = icmp ne i32 %39, 0
  br i1 %40, label %41, label %47

41:                                               ; preds = %37
  %42 = load ptr, ptr %4, align 8, !tbaa !4
  %43 = load i32, ptr %7, align 4, !tbaa !15
  %44 = add nsw i32 %43, 1
  store i32 %44, ptr %7, align 4, !tbaa !15
  %45 = call i32 @checkfield(ptr noundef %42, ptr noundef @.str.11, i32 noundef %44)
  %46 = icmp ne i32 %45, 0
  br i1 %46, label %47, label %52

47:                                               ; preds = %41, %37
  %48 = load ptr, ptr %4, align 8, !tbaa !4
  %49 = load i32, ptr %7, align 4, !tbaa !15
  %50 = sub nsw i32 0, %49
  %51 = sub nsw i32 %50, 1
  call void @lua_settop(ptr noundef %48, i32 noundef %51)
  br label %55

52:                                               ; preds = %41, %31, %21, %12
  %53 = load ptr, ptr %4, align 8, !tbaa !4
  %54 = load i32, ptr %5, align 4, !tbaa !15
  call void @luaL_checktype(ptr noundef %53, i32 noundef %54, i32 noundef 5)
  br label %55

55:                                               ; preds = %52, %47
  call void @llvm.lifetime.end.p0(i64 4, ptr %7) #4
  br label %56

56:                                               ; preds = %55, %3
  ret void
}

; Function Attrs: nounwind uwtable
define internal i32 @tmove(ptr noundef %0) #0 {
  %2 = alloca ptr, align 8
  %3 = alloca i64, align 8
  %4 = alloca i64, align 8
  %5 = alloca i64, align 8
  %6 = alloca i32, align 4
  %7 = alloca i64, align 8
  %8 = alloca i64, align 8
  store ptr %0, ptr %2, align 8, !tbaa !4
  call void @llvm.lifetime.start.p0(i64 8, ptr %3) #4
  %9 = load ptr, ptr %2, align 8, !tbaa !4
  %10 = call i64 @luaL_checkinteger(ptr noundef %9, i32 noundef 2)
  store i64 %10, ptr %3, align 8, !tbaa !9
  call void @llvm.lifetime.start.p0(i64 8, ptr %4) #4
  %11 = load ptr, ptr %2, align 8, !tbaa !4
  %12 = call i64 @luaL_checkinteger(ptr noundef %11, i32 noundef 3)
  store i64 %12, ptr %4, align 8, !tbaa !9
  call void @llvm.lifetime.start.p0(i64 8, ptr %5) #4
  %13 = load ptr, ptr %2, align 8, !tbaa !4
  %14 = call i64 @luaL_checkinteger(ptr noundef %13, i32 noundef 4)
  store i64 %14, ptr %5, align 8, !tbaa !9
  call void @llvm.lifetime.start.p0(i64 4, ptr %6) #4
  %15 = load ptr, ptr %2, align 8, !tbaa !4
  %16 = call i32 @lua_type(ptr noundef %15, i32 noundef 5)
  %17 = icmp sle i32 %16, 0
  %18 = xor i1 %17, true
  %19 = select i1 %18, i32 5, i32 1
  store i32 %19, ptr %6, align 4, !tbaa !15
  %20 = load ptr, ptr %2, align 8, !tbaa !4
  call void @checktab(ptr noundef %20, i32 noundef 1, i32 noundef 1)
  %21 = load ptr, ptr %2, align 8, !tbaa !4
  %22 = load i32, ptr %6, align 4, !tbaa !15
  call void @checktab(ptr noundef %21, i32 noundef %22, i32 noundef 2)
  %23 = load i64, ptr %4, align 8, !tbaa !9
  %24 = load i64, ptr %3, align 8, !tbaa !9
  %25 = icmp sge i64 %23, %24
  br i1 %25, label %26, label %122

26:                                               ; preds = %1
  call void @llvm.lifetime.start.p0(i64 8, ptr %7) #4
  call void @llvm.lifetime.start.p0(i64 8, ptr %8) #4
  %27 = load i64, ptr %3, align 8, !tbaa !9
  %28 = icmp sgt i64 %27, 0
  br i1 %28, label %34, label %29

29:                                               ; preds = %26
  %30 = load i64, ptr %4, align 8, !tbaa !9
  %31 = load i64, ptr %3, align 8, !tbaa !9
  %32 = add nsw i64 9223372036854775807, %31
  %33 = icmp slt i64 %30, %32
  br label %34

34:                                               ; preds = %29, %26
  %35 = phi i1 [ true, %26 ], [ %33, %29 ]
  %36 = zext i1 %35 to i32
  %37 = icmp ne i32 %36, 0
  %38 = zext i1 %37 to i32
  %39 = sext i32 %38 to i64
  %40 = call i64 @llvm.expect.i64(i64 %39, i64 1)
  %41 = icmp ne i64 %40, 0
  br i1 %41, label %45, label %42

42:                                               ; preds = %34
  %43 = load ptr, ptr %2, align 8, !tbaa !4
  %44 = call i32 @luaL_argerror(ptr noundef %43, i32 noundef 3, ptr noundef @.str.18)
  br label %45

45:                                               ; preds = %42, %34
  %46 = load i64, ptr %4, align 8, !tbaa !9
  %47 = load i64, ptr %3, align 8, !tbaa !9
  %48 = sub nsw i64 %46, %47
  %49 = add nsw i64 %48, 1
  store i64 %49, ptr %7, align 8, !tbaa !9
  %50 = load i64, ptr %5, align 8, !tbaa !9
  %51 = load i64, ptr %7, align 8, !tbaa !9
  %52 = sub nsw i64 9223372036854775807, %51
  %53 = add nsw i64 %52, 1
  %54 = icmp sle i64 %50, %53
  %55 = zext i1 %54 to i32
  %56 = icmp ne i32 %55, 0
  %57 = zext i1 %56 to i32
  %58 = sext i32 %57 to i64
  %59 = call i64 @llvm.expect.i64(i64 %58, i64 1)
  %60 = icmp ne i64 %59, 0
  br i1 %60, label %64, label %61

61:                                               ; preds = %45
  %62 = load ptr, ptr %2, align 8, !tbaa !4
  %63 = call i32 @luaL_argerror(ptr noundef %62, i32 noundef 4, ptr noundef @.str.19)
  br label %64

64:                                               ; preds = %61, %45
  %65 = load i64, ptr %5, align 8, !tbaa !9
  %66 = load i64, ptr %4, align 8, !tbaa !9
  %67 = icmp sgt i64 %65, %66
  br i1 %67, label %80, label %68

68:                                               ; preds = %64
  %69 = load i64, ptr %5, align 8, !tbaa !9
  %70 = load i64, ptr %3, align 8, !tbaa !9
  %71 = icmp sle i64 %69, %70
  br i1 %71, label %80, label %72

72:                                               ; preds = %68
  %73 = load i32, ptr %6, align 4, !tbaa !15
  %74 = icmp ne i32 %73, 1
  br i1 %74, label %75, label %100

75:                                               ; preds = %72
  %76 = load ptr, ptr %2, align 8, !tbaa !4
  %77 = load i32, ptr %6, align 4, !tbaa !15
  %78 = call i32 @lua_compare(ptr noundef %76, i32 noundef 1, i32 noundef %77, i32 noundef 0)
  %79 = icmp ne i32 %78, 0
  br i1 %79, label %100, label %80

80:                                               ; preds = %75, %68, %64
  store i64 0, ptr %8, align 8, !tbaa !9
  br label %81

81:                                               ; preds = %96, %80
  %82 = load i64, ptr %8, align 8, !tbaa !9
  %83 = load i64, ptr %7, align 8, !tbaa !9
  %84 = icmp slt i64 %82, %83
  br i1 %84, label %85, label %99

85:                                               ; preds = %81
  %86 = load ptr, ptr %2, align 8, !tbaa !4
  %87 = load i64, ptr %3, align 8, !tbaa !9
  %88 = load i64, ptr %8, align 8, !tbaa !9
  %89 = add nsw i64 %87, %88
  %90 = call i32 @lua_geti(ptr noundef %86, i32 noundef 1, i64 noundef %89)
  %91 = load ptr, ptr %2, align 8, !tbaa !4
  %92 = load i32, ptr %6, align 4, !tbaa !15
  %93 = load i64, ptr %5, align 8, !tbaa !9
  %94 = load i64, ptr %8, align 8, !tbaa !9
  %95 = add nsw i64 %93, %94
  call void @lua_seti(ptr noundef %91, i32 noundef %92, i64 noundef %95)
  br label %96

96:                                               ; preds = %85
  %97 = load i64, ptr %8, align 8, !tbaa !9
  %98 = add nsw i64 %97, 1
  store i64 %98, ptr %8, align 8, !tbaa !9
  br label %81

99:                                               ; preds = %81
  br label %121

100:                                              ; preds = %75, %72
  %101 = load i64, ptr %7, align 8, !tbaa !9
  %102 = sub nsw i64 %101, 1
  store i64 %102, ptr %8, align 8, !tbaa !9
  br label %103

103:                                              ; preds = %117, %100
  %104 = load i64, ptr %8, align 8, !tbaa !9
  %105 = icmp sge i64 %104, 0
  br i1 %105, label %106, label %120

106:                                              ; preds = %103
  %107 = load ptr, ptr %2, align 8, !tbaa !4
  %108 = load i64, ptr %3, align 8, !tbaa !9
  %109 = load i64, ptr %8, align 8, !tbaa !9
  %110 = add nsw i64 %108, %109
  %111 = call i32 @lua_geti(ptr noundef %107, i32 noundef 1, i64 noundef %110)
  %112 = load ptr, ptr %2, align 8, !tbaa !4
  %113 = load i32, ptr %6, align 4, !tbaa !15
  %114 = load i64, ptr %5, align 8, !tbaa !9
  %115 = load i64, ptr %8, align 8, !tbaa !9
  %116 = add nsw i64 %114, %115
  call void @lua_seti(ptr noundef %112, i32 noundef %113, i64 noundef %116)
  br label %117

117:                                              ; preds = %106
  %118 = load i64, ptr %8, align 8, !tbaa !9
  %119 = add nsw i64 %118, -1
  store i64 %119, ptr %8, align 8, !tbaa !9
  br label %103

120:                                              ; preds = %103
  br label %121

121:                                              ; preds = %120, %99
  call void @llvm.lifetime.end.p0(i64 8, ptr %8) #4
  call void @llvm.lifetime.end.p0(i64 8, ptr %7) #4
  br label %122

122:                                              ; preds = %121, %1
  %123 = load ptr, ptr %2, align 8, !tbaa !4
  %124 = load i32, ptr %6, align 4, !tbaa !15
  call void @lua_pushvalue(ptr noundef %123, i32 noundef %124)
  call void @llvm.lifetime.end.p0(i64 4, ptr %6) #4
  call void @llvm.lifetime.end.p0(i64 8, ptr %5) #4
  call void @llvm.lifetime.end.p0(i64 8, ptr %4) #4
  call void @llvm.lifetime.end.p0(i64 8, ptr %3) #4
  ret i32 1
}