; Function Attrs: nounwind uwtable
define internal noundef i32 @tmove(ptr noundef %0) #0 {
  %2 = tail call i64 @luaL_checkinteger(ptr noundef %0, i32 noundef 2) #3
  %3 = tail call i64 @luaL_checkinteger(ptr noundef %0, i32 noundef 3) #3
  %4 = tail call i64 @luaL_checkinteger(ptr noundef %0, i32 noundef 4) #3
  %5 = tail call i32 @lua_type(ptr noundef %0, i32 noundef 5) #3
  %6 = icmp sgt i32 %5, 0
  %7 = select i1 %6, i32 5, i32 1
  %8 = tail call i32 @lua_type(ptr noundef %0, i32 noundef 1) #3
  %.not.i = icmp eq i32 %8, 5
  br i1 %.not.i, label %checktab.exit, label %9

9:                                                ; preds = %1
  %10 = tail call i32 @lua_getmetatable(ptr noundef %0, i32 noundef 1) #3
  %.not16.i = icmp eq i32 %10, 0
  br i1 %.not16.i, label %15, label %11

11:                                               ; preds = %9
  %12 = tail call ptr @lua_pushstring(ptr noundef %0, ptr noundef nonnull @.str.9) #3
  %13 = tail call i32 @lua_rawget(ptr noundef %0, i32 noundef -2) #3
  %.not23.i = icmp eq i32 %13, 0
  br i1 %.not23.i, label %15, label %14

14:                                               ; preds = %11
  tail call void @lua_settop(ptr noundef %0, i32 noundef -3) #3
  br label %checktab.exit

15:                                               ; preds = %11, %9
  tail call void @luaL_checktype(ptr noundef %0, i32 noundef 1, i32 noundef 5) #3
  br label %checktab.exit

checktab.exit:                                    ; preds = %1, %14, %15
  %16 = tail call i32 @lua_type(ptr noundef %0, i32 noundef range(i32 1, 6) %7) #3
  %.not.i53 = icmp eq i32 %16, 5
  br i1 %.not.i53, label %checktab.exit55, label %17

17:                                               ; preds = %checktab.exit
  %18 = tail call i32 @lua_getmetatable(ptr noundef %0, i32 noundef range(i32 1, 6) %7) #3
  %.not16.i54 = icmp eq i32 %18, 0
  br i1 %.not16.i54, label %23, label %19

19:                                               ; preds = %17
  %20 = tail call ptr @lua_pushstring(ptr noundef %0, ptr noundef nonnull @.str.10) #3
  %21 = tail call i32 @lua_rawget(ptr noundef %0, i32 noundef -2) #3
  %.not24.i = icmp eq i32 %21, 0
  br i1 %.not24.i, label %23, label %22

22:                                               ; preds = %19
  tail call void @lua_settop(ptr noundef %0, i32 noundef -3) #3
  br label %checktab.exit55

23:                                               ; preds = %19, %17
  tail call void @luaL_checktype(ptr noundef %0, i32 noundef range(i32 1, 6) %7, i32 noundef 5) #3
  br label %checktab.exit55

checktab.exit55:                                  ; preds = %checktab.exit, %22, %23
  %.not = icmp slt i64 %3, %2
  br i1 %.not, label %.loopexit, label %24

24:                                               ; preds = %checktab.exit55
  %25 = icmp sgt i64 %2, 0
  %26 = add nsw i64 %2, 9223372036854775807
  %27 = icmp slt i64 %3, %26
  %28 = select i1 %25, i1 true, i1 %27
  br i1 %28, label %31, label %29, !prof !9

29:                                               ; preds = %24
  %30 = tail call i32 @luaL_argerror(ptr noundef %0, i32 noundef 3, ptr noundef nonnull @.str.18) #3
  br label %31

31:                                               ; preds = %29, %24
  %32 = sub nsw i64 %3, %2
  %33 = sub i64 9223372036854775807, %32
  %.not49 = icmp sgt i64 %4, %33
  br i1 %.not49, label %34, label %36, !prof !4

34:                                               ; preds = %31
  %35 = tail call i32 @luaL_argerror(ptr noundef %0, i32 noundef 4, ptr noundef nonnull @.str.19) #3
  br label %36

36:                                               ; preds = %34, %31
  %37 = icmp sle i64 %4, %3
  %.not50 = icmp sgt i64 %4, %2
  %or.cond = select i1 %37, i1 %.not50, i1 false
  br i1 %or.cond, label %38, label %41

38:                                               ; preds = %36
  br i1 %6, label %39, label %48

39:                                               ; preds = %38
  %40 = tail call i32 @lua_compare(ptr noundef %0, i32 noundef 1, i32 noundef 5, i32 noundef 0) #3
  %.not51 = icmp eq i32 %40, 0
  br i1 %.not51, label %41, label %48

41:                                               ; preds = %39, %36
  %.not5258 = icmp slt i64 %32, 0
  br i1 %.not5258, label %.loopexit, label %.lr.ph60.preheader

.lr.ph60.preheader:                               ; preds = %41
  %42 = add i64 %3, 1
  %43 = sub i64 %42, %2
  br label %.lr.ph60

.lr.ph60:                                         ; preds = %.lr.ph60.preheader, %.lr.ph60
  %.059 = phi i64 [ %47, %.lr.ph60 ], [ 0, %.lr.ph60.preheader ]
  %44 = add nsw i64 %.059, %2
  %45 = tail call i32 @lua_geti(ptr noundef %0, i32 noundef 1, i64 noundef %44) #3
  %46 = add nsw i64 %.059, %4
  tail call void @lua_seti(ptr noundef %0, i32 noundef %7, i64 noundef %46) #3
  %47 = add nuw i64 %.059, 1
  %exitcond.not = icmp eq i64 %47, %43
  br i1 %exitcond.not, label %.loopexit, label %.lr.ph60

48:                                               ; preds = %39, %38
  %49 = icmp sgt i64 %32, -1
  br i1 %49, label %.lr.ph, label %.loopexit

.lr.ph:                                           ; preds = %48, %.lr.ph
  %.157 = phi i64 [ %53, %.lr.ph ], [ %32, %48 ]
  %50 = add nsw i64 %.157, %2
  %51 = tail call i32 @lua_geti(ptr noundef %0, i32 noundef 1, i64 noundef %50) #3
  %52 = add nsw i64 %.157, %4
  tail call void @lua_seti(ptr noundef %0, i32 noundef %7, i64 noundef %52) #3
  %53 = add nsw i64 %.157, -1
  %.not63 = icmp eq i64 %.157, 0
  br i1 %.not63, label %.loopexit, label %.lr.ph

.loopexit:                                        ; preds = %.lr.ph, %.lr.ph60, %48, %41, %checktab.exit55
  tail call void @lua_pushvalue(ptr noundef %0, i32 noundef %7) #3
  ret i32 1
}